target datalayout = "e-m:e-p270:32:32-p271:32:32-p272:64:64-i64:64-i128:128-f80:128-n8:16:32:64-S128"
target triple = "x86_64-pc-linux-gnu"

; Function Attrs: nounwind uwtable
define internal zeroext i8 @is_zip64_endhdr(i32 noundef %0, ptr noundef %1, i64 noundef %2, i64 noundef %3, i64 noundef %4, i64 noundef %5) #0 {
  %7 = alloca i8, align 1
  %8 = alloca i32, align 4
  %9 = alloca ptr, align 8
  %10 = alloca i64, align 8
  %11 = alloca i64, align 8
  %12 = alloca i64, align 8
  %13 = alloca i64, align 8
  %14 = alloca i64, align 8
  %15 = alloca i64, align 8
  %16 = alloca i64, align 8
  store i32 %0, ptr %8, align 4
  store ptr %1, ptr %9, align 8
  store i64 %2, ptr %10, align 8
  store i64 %3, ptr %11, align 8
  store i64 %4, ptr %12, align 8
  store i64 %5, ptr %13, align 8
  %17 = load ptr, ptr %9, align 8
  %18 = getelementptr inbounds i8, ptr %17, i64 0
  %19 = load i8, ptr %18, align 1
  %20 = zext i8 %19 to i32
  %21 = icmp eq i32 %20, 80
  %22 = zext i1 %21 to i32
  %23 = load ptr, ptr %9, align 8
  %24 = getelementptr inbounds i8, ptr %23, i64 1
  %25 = load i8, ptr %24, align 1
  %26 = zext i8 %25 to i32
  %27 = icmp eq i32 %26, 75
  %28 = zext i1 %27 to i32
  %29 = and i32 %22, %28
  %30 = load ptr, ptr %9, align 8
  %31 = getelementptr inbounds i8, ptr %30, i64 2
  %32 = load i8, ptr %31, align 1
  %33 = zext i8 %32 to i32
  %34 = icmp eq i32 %33, 6
  %35 = zext i1 %34 to i32
  %36 = and i32 %29, %35
  %37 = load ptr, ptr %9, align 8
  %38 = getelementptr inbounds i8, ptr %37, i64 3
  %39 = load i8, ptr %38, align 1
  %40 = zext i8 %39 to i32
  %41 = icmp eq i32 %40, 6
  %42 = zext i1 %41 to i32
  %43 = and i32 %36, %42
  %44 = icmp ne i32 %43, 0
  br i1 %44, label %45, label %229

45:                                               ; preds = %6
  %46 = load ptr, ptr %9, align 8
  %47 = getelementptr inbounds i8, ptr %46, i64 40
  %48 = load i8, ptr %47, align 1
  %49 = zext i8 %48 to i32
  %50 = load ptr, ptr %9, align 8
  %51 = getelementptr inbounds i8, ptr %50, i64 41
  %52 = load i8, ptr %51, align 1
  %53 = zext i8 %52 to i32
  %54 = shl i32 %53, 8
  %55 = or i32 %49, %54
  %56 = load ptr, ptr %9, align 8
  %57 = getelementptr inbounds i8, ptr %56, i64 42
  %58 = load i8, ptr %57, align 1
  %59 = zext i8 %58 to i32
  %60 = load ptr, ptr %9, align 8
  %61 = getelementptr inbounds i8, ptr %60, i64 43
  %62 = load i8, ptr %61, align 1
  %63 = zext i8 %62 to i32
  %64 = shl i32 %63, 8
  %65 = or i32 %59, %64
  %66 = shl i32 %65, 16
  %67 = or i32 %55, %66
  %68 = sext i32 %67 to i64
  %69 = and i64 %68, 4294967295
  %70 = load ptr, ptr %9, align 8
  %71 = getelementptr inbounds i8, ptr %70, i64 44
  %72 = load i8, ptr %71, align 1
  %73 = zext i8 %72 to i32
  %74 = load ptr, ptr %9, align 8
  %75 = getelementptr inbounds i8, ptr %74, i64 45
  %76 = load i8, ptr %75, align 1
  %77 = zext i8 %76 to i32
  %78 = shl i32 %77, 8
  %79 = or i32 %73, %78
  %80 = load ptr, ptr %9, align 8
  %81 = getelementptr inbounds i8, ptr %80, i64 46
  %82 = load i8, ptr %81, align 1
  %83 = zext i8 %82 to i32
  %84 = load ptr, ptr %9, align 8
  %85 = getelementptr inbounds i8, ptr %84, i64 47
  %86 = load i8, ptr %85, align 1
  %87 = zext i8 %86 to i32
  %88 = shl i32 %87, 8
  %89 = or i32 %83, %88
  %90 = shl i32 %89, 16
  %91 = or i32 %79, %90
  %92 = sext i32 %91 to i64
  %93 = and i64 %92, 4294967295
  %94 = shl i64 %93, 32
  %95 = or i64 %69, %94
  store i64 %95, ptr %14, align 8
  %96 = load ptr, ptr %9, align 8
  %97 = getelementptr inbounds i8, ptr %96, i64 48
  %98 = load i8, ptr %97, align 1
  %99 = zext i8 %98 to i32
  %100 = load ptr, ptr %9, align 8
  %101 = getelementptr inbounds i8, ptr %100, i64 49
  %102 = load i8, ptr %101, align 1
  %103 = zext i8 %102 to i32
  %104 = shl i32 %103, 8
  %105 = or i32 %99, %104
  %106 = load ptr, ptr %9, align 8
  %107 = getelementptr inbounds i8, ptr %106, i64 50
  %108 = load i8, ptr %107, align 1
  %109 = zext i8 %108 to i32
  %110 = load ptr, ptr %9, align 8
  %111 = getelementptr inbounds i8, ptr %110, i64 51
  %112 = load i8, ptr %111, align 1
  %113 = zext i8 %112 to i32
  %114 = shl i32 %113, 8
  %115 = or i32 %109, %114
  %116 = shl i32 %115, 16
  %117 = or i32 %105, %116
  %118 = sext i32 %117 to i64
  %119 = and i64 %118, 4294967295
  %120 = load ptr, ptr %9, align 8
  %121 = getelementptr inbounds i8, ptr %120, i64 52
  %122 = load i8, ptr %121, align 1
  %123 = zext i8 %122 to i32
  %124 = load ptr, ptr %9, align 8
  %125 = getelementptr inbounds i8, ptr %124, i64 53
  %126 = load i8, ptr %125, align 1
  %127 = zext i8 %126 to i32
  %128 = shl i32 %127, 8
  %129 = or i32 %123, %128
  %130 = load ptr, ptr %9, align 8
  %131 = getelementptr inbounds i8, ptr %130, i64 54
  %132 = load i8, ptr %131, align 1
  %133 = zext i8 %132 to i32
  %134 = load ptr, ptr %9, align 8
  %135 = getelementptr inbounds i8, ptr %134, i64 55
  %136 = load i8, ptr %135, align 1
  %137 = zext i8 %136 to i32
  %138 = shl i32 %137, 8
  %139 = or i32 %133, %138
  %140 = shl i32 %139, 16
  %141 = or i32 %129, %140
  %142 = sext i32 %141 to i64
  %143 = and i64 %142, 4294967295
  %144 = shl i64 %143, 32
  %145 = or i64 %119, %144
  store i64 %145, ptr %15, align 8
  %146 = load ptr, ptr %9, align 8
  %147 = getelementptr inbounds i8, ptr %146, i64 32
  %148 = load i8, ptr %147, align 1
  %149 = zext i8 %148 to i32
  %150 = load ptr, ptr %9, align 8
  %151 = getelementptr inbounds i8, ptr %150, i64 33
  %152 = load i8, ptr %151, align 1
  %153 = zext i8 %152 to i32
  %154 = shl i32 %153, 8
  %155 = or i32 %149, %154
  %156 = load ptr, ptr %9, align 8
  %157 = getelementptr inbounds i8, ptr %156, i64 34
  %158 = load i8, ptr %157, align 1
  %159 = zext i8 %158 to i32
  %160 = load ptr, ptr %9, align 8
  %161 = getelementptr inbounds i8, ptr %160, i64 35
  %162 = load i8, ptr %161, align 1
  %163 = zext i8 %162 to i32
  %164 = shl i32 %163, 8
  %165 = or i32 %159, %164
  %166 = shl i32 %165, 16
  %167 = or i32 %155, %166
  %168 = sext i32 %167 to i64
  %169 = and i64 %168, 4294967295
  %170 = load ptr, ptr %9, align 8
  %171 = getelementptr inbounds i8, ptr %170, i64 36
  %172 = load i8, ptr %171, align 1
  %173 = zext i8 %172 to i32
  %174 = load ptr, ptr %9, align 8
  %175 = getelementptr inbounds i8, ptr %174, i64 37
  %176 = load i8, ptr %175, align 1
  %177 = zext i8 %176 to i32
  %178 = shl i32 %177, 8
  %179 = or i32 %173, %178
  %180 = load ptr, ptr %9, align 8
  %181 = getelementptr inbounds i8, ptr %180, i64 38
  %182 = load i8, ptr %181, align 1
  %183 = zext i8 %182 to i32
  %184 = load ptr, ptr %9, align 8
  %185 = getelementptr inbounds i8, ptr %184, i64 39
  %186 = load i8, ptr %185, align 1
  %187 = zext i8 %186 to i32
  %188 = shl i32 %187, 8
  %189 = or i32 %183, %188
  %190 = shl i32 %189, 16
  %191 = or i32 %179, %190
  %192 = sext i32 %191 to i64
  %193 = and i64 %192, 4294967295
  %194 = shl i64 %193, 32
  %195 = or i64 %169, %194
  store i64 %195, ptr %16, align 8
  %196 = load i64, ptr %14, align 8
  %197 = load i64, ptr %11, align 8
  %198 = icmp eq i64 %196, %197
  br i1 %198, label %202, label %199

199:                                              ; preds = %45
  %200 = load i64, ptr %11, align 8
  %201 = icmp eq i64 %200, 4294967295
  br i1 %201, label %202, label %225

202:                                              ; preds = %199, %45
  %203 = load i64, ptr %15, align 8
  %204 = load i64, ptr %12, align 8
  %205 = icmp eq i64 %203, %204
  br i1 %205, label %209, label %206

206:                                              ; preds = %202
  %207 = load i64, ptr %12, align 8
  %208 = icmp eq i64 %207, 4294967295
  br i1 %208, label %209, label %225

209:                                              ; preds = %206, %202
  %210 = load i64, ptr %16, align 8
  %211 = load i64, ptr %13, align 8
  %212 = icmp eq i64 %210, %211
  br i1 %212, label %216, label %213

213:                                              ; preds = %209
  %214 = load i64, ptr %13, align 8
  %215 = icmp eq i64 %214, 65535
  br i1 %215, label %216, label %225

216:                                              ; preds = %213, %209
  %217 = load i32, ptr %8, align 4
  %218 = load i64, ptr %10, align 8
  %219 = load i64, ptr %14, align 8
  %220 = load i64, ptr %15, align 8
  %221 = load i64, ptr %16, align 8
  %222 = call zeroext i8 @is_valid_end_header(i32 noundef %217, i64 noundef %218, i64 noundef %219, i64 noundef %220, i64 noundef %221)
  %223 = zext i8 %222 to i32
  %224 = icmp ne i32 %223, 0
  br label %225

225:                                              ; preds = %216, %213, %206, %199
  %226 = phi i1 [ false, %213 ], [ false, %206 ], [ false, %199 ], [ %224, %216 ]
  %227 = zext i1 %226 to i32
  %228 = trunc i32 %227 to i8
  store i8 %228, ptr %7, align 1
  br label %230

229:                                              ; preds = %6
  store i8 0, ptr %7, align 1
  br label %230

230:                                              ; preds = %229, %225
  %231 = load i8, ptr %7, align 1
  ret i8 %231
}