; Function Attrs: nounwind uwtable
define internal fastcc zeroext range(i8 0, 2) i8 @is_zip64_endhdr(i32 noundef %0, ptr nocapture noundef readonly %1, i64 noundef %2, i64 noundef %3, i64 noundef %4, i64 noundef %5) unnamed_addr #0 {
  %7 = load i32, ptr %1, align 1
  %8 = icmp eq i32 %7, 101075792
  br i1 %8, label %9, label %74

9:                                                ; preds = %6
  %10 = getelementptr inbounds i8, ptr %1, i64 40
  %11 = load i16, ptr %10, align 1
  %12 = zext i16 %11 to i64
  %13 = getelementptr inbounds i8, ptr %1, i64 42
  %14 = load i16, ptr %13, align 1
  %15 = zext i16 %14 to i64
  %16 = shl nuw nsw i64 %15, 16
  %17 = or disjoint i64 %16, %12
  %18 = getelementptr inbounds i8, ptr %1, i64 44
  %19 = load i16, ptr %18, align 1
  %20 = zext i16 %19 to i64
  %21 = getelementptr inbounds i8, ptr %1, i64 46
  %22 = load i16, ptr %21, align 1
  %23 = zext i16 %22 to i64
  %24 = shl nuw i64 %23, 48
  %25 = shl nuw nsw i64 %20, 32
  %26 = or disjoint i64 %24, %25
  %27 = or disjoint i64 %17, %26
  %28 = getelementptr inbounds i8, ptr %1, i64 48
  %29 = load i16, ptr %28, align 1
  %30 = zext i16 %29 to i64
  %31 = getelementptr inbounds i8, ptr %1, i64 50
  %32 = load i16, ptr %31, align 1
  %33 = zext i16 %32 to i64
  %34 = shl nuw nsw i64 %33, 16
  %35 = or disjoint i64 %34, %30
  %36 = getelementptr inbounds i8, ptr %1, i64 52
  %37 = load i16, ptr %36, align 1
  %38 = zext i16 %37 to i64
  %39 = getelementptr inbounds i8, ptr %1, i64 54
  %40 = load i16, ptr %39, align 1
  %41 = zext i16 %40 to i64
  %42 = shl nuw i64 %41, 48
  %43 = shl nuw nsw i64 %38, 32
  %44 = or disjoint i64 %42, %43
  %45 = or disjoint i64 %35, %44
  %46 = getelementptr inbounds i8, ptr %1, i64 32
  %47 = load i16, ptr %46, align 1
  %48 = zext i16 %47 to i64
  %49 = getelementptr inbounds i8, ptr %1, i64 34
  %50 = load i16, ptr %49, align 1
  %51 = zext i16 %50 to i64
  %52 = shl nuw nsw i64 %51, 16
  %53 = or disjoint i64 %52, %48
  %54 = getelementptr inbounds i8, ptr %1, i64 36
  %55 = load i16, ptr %54, align 1
  %56 = zext i16 %55 to i64
  %57 = getelementptr inbounds i8, ptr %1, i64 38
  %58 = load i16, ptr %57, align 1
  %59 = zext i16 %58 to i64
  %60 = shl nuw i64 %59, 48
  %61 = shl nuw nsw i64 %56, 32
  %62 = or disjoint i64 %60, %61
  %63 = or disjoint i64 %53, %62
  %64 = icmp eq i64 %27, %3
  %65 = icmp eq i64 %3, 4294967295
  %or.cond = or i1 %65, %64
  br i1 %or.cond, label %66, label %74

66:                                               ; preds = %9
  %67 = icmp eq i64 %45, %4
  %68 = icmp eq i64 %4, 4294967295
  %or.cond3 = or i1 %68, %67
  br i1 %or.cond3, label %69, label %74

69:                                               ; preds = %66
  %70 = icmp eq i64 %63, %5
  %71 = icmp eq i64 %5, 65535
  %or.cond5 = or i1 %71, %70
  br i1 %or.cond5, label %72, label %74

72:                                               ; preds = %69
  %73 = tail call fastcc zeroext i8 @is_valid_end_header(i32 noundef %0, i64 noundef %2, i64 noundef %27, i64 noundef %45)
  br label %74

74:                                               ; preds = %6, %72, %9, %66, %69
  %.0 = phi i8 [ %73, %72 ], [ 0, %9 ], [ 0, %66 ], [ 0, %69 ], [ 0, %6 ]
  ret i8 %.0
}